target datalayout = "e-m:e-p270:32:32-p271:32:32-p272:64:64-i64:64-i128:128-f80:128-n8:16:32:64-S128"
target triple = "x86_64-pc-linux-gnu"

%struct.Rtm_Man_t_ = type { ptr, ptr, ptr, ptr, ptr, i32, i32 }
%struct.Vec_Ptr_t_ = type { i32, i32, ptr }
%struct.Rtm_Obj_t_ = type { ptr, i32, i32, i32, i32, [0 x ptr] }

; Function Attrs: inlinehint nounwind uwtable
define internal i32 @Abc_MaxInt(i32 noundef %0, i32 noundef %1) #5 {
  %3 = alloca i32, align 4
  %4 = alloca i32, align 4
  store i32 %0, ptr %3, align 4, !tbaa !21
  store i32 %1, ptr %4, align 4, !tbaa !21
  %5 = load i32, ptr %3, align 4, !tbaa !21
  %6 = load i32, ptr %4, align 4, !tbaa !21
  %7 = icmp sgt i32 %5, %6
  br i1 %7, label %8, label %10

8:                                                ; preds = %2
  %9 = load i32, ptr %3, align 4, !tbaa !21
  br label %12

10:                                               ; preds = %2
  %11 = load i32, ptr %4, align 4, !tbaa !21
  br label %12

12:                                               ; preds = %10, %8
  %13 = phi i32 [ %9, %8 ], [ %11, %10 ]
  ret i32 %13
}

; Function Attrs: inlinehint nounwind uwtable
define internal ptr @Rtm_ObjEdge(ptr noundef %0, i32 noundef %1) #5 {
  %3 = alloca ptr, align 8
  %4 = alloca i32, align 4
  store ptr %0, ptr %3, align 8, !tbaa !40
  store i32 %1, ptr %4, align 4, !tbaa !21
  %5 = load ptr, ptr %3, align 8, !tbaa !40
  %6 = getelementptr inbounds nuw %struct.Rtm_Obj_t_, ptr %5, i32 0, i32 5
  %7 = getelementptr inbounds [0 x ptr], ptr %6, i64 0, i64 0
  %8 = load i32, ptr %4, align 4, !tbaa !21
  %9 = mul nsw i32 2, %8
  %10 = sext i32 %9 to i64
  %11 = getelementptr inbounds ptr, ptr %7, i64 %10
  %12 = getelementptr inbounds ptr, ptr %11, i64 1
  ret ptr %12
}

; Function Attrs: inlinehint nounwind uwtable
define internal ptr @Vec_PtrEntry(ptr noundef %0, i32 noundef %1) #5 {
  %3 = alloca ptr, align 8
  %4 = alloca i32, align 4
  store ptr %0, ptr %3, align 8, !tbaa !22
  store i32 %1, ptr %4, align 4, !tbaa !21
  %5 = load ptr, ptr %3, align 8, !tbaa !22
  %6 = getelementptr inbounds nuw %struct.Vec_Ptr_t_, ptr %5, i32 0, i32 2
  %7 = load ptr, ptr %6, align 8, !tbaa !26
  %8 = load i32, ptr %4, align 4, !tbaa !21
  %9 = sext i32 %8 to i64
  %10 = getelementptr inbounds ptr, ptr %7, i64 %9
  %11 = load ptr, ptr %10, align 8, !tbaa !45
  ret ptr %11
}

; Function Attrs: inlinehint nounwind uwtable
define internal i32 @Vec_PtrSize(ptr noundef %0) #5 {
  %2 = alloca ptr, align 8
  store ptr %0, ptr %2, align 8, !tbaa !22
  %3 = load ptr, ptr %2, align 8, !tbaa !22
  %4 = getelementptr inbounds nuw %struct.Vec_Ptr_t_, ptr %3, i32 0, i32 1
  %5 = load i32, ptr %4, align 4, !tbaa !23
  ret i32 %5
}

; Function Attrs: nounwind uwtable
define i32 @Rtm_ManLatchMax(ptr noundef %0) #0 {
  %2 = alloca ptr, align 8
  %3 = alloca ptr, align 8
  %4 = alloca ptr, align 8
  %5 = alloca i32, align 4
  %6 = alloca i32, align 4
  %7 = alloca i32, align 4
  store ptr %0, ptr %2, align 8, !tbaa !3
  call void @llvm.lifetime.start.p0(i64 8, ptr %3) #11
  call void @llvm.lifetime.start.p0(i64 8, ptr %4) #11
  call void @llvm.lifetime.start.p0(i64 4, ptr %5) #11
  store i32 0, ptr %5, align 4, !tbaa !21
  call void @llvm.lifetime.start.p0(i64 4, ptr %6) #11
  call void @llvm.lifetime.start.p0(i64 4, ptr %7) #11
  store i32 0, ptr %6, align 4, !tbaa !21
  br label %8

8:                                                ; preds = %52, %1
  %9 = load i32, ptr %6, align 4, !tbaa !21
  %10 = load ptr, ptr %2, align 8, !tbaa !3
  %11 = getelementptr inbounds nuw %struct.Rtm_Man_t_, ptr %10, i32 0, i32 0
  %12 = load ptr, ptr %11, align 8, !tbaa !12
  %13 = call i32 @Vec_PtrSize(ptr noundef %12)
  %14 = icmp slt i32 %9, %13
  br i1 %14, label %15, label %21

15:                                               ; preds = %8
  %16 = load ptr, ptr %2, align 8, !tbaa !3
  %17 = getelementptr inbounds nuw %struct.Rtm_Man_t_, ptr %16, i32 0, i32 0
  %18 = load ptr, ptr %17, align 8, !tbaa !12
  %19 = load i32, ptr %6, align 4, !tbaa !21
  %20 = call ptr @Vec_PtrEntry(ptr noundef %18, i32 noundef %19)
  store ptr %20, ptr %3, align 8, !tbaa !40
  br label %21

21:                                               ; preds = %15, %8
  %22 = phi i1 [ false, %8 ], [ true, %15 ]
  br i1 %22, label %23, label %55

23:                                               ; preds = %21
  store i32 0, ptr %7, align 4, !tbaa !21
  br label %24

24:                                               ; preds = %48, %23
  %25 = load i32, ptr %7, align 4, !tbaa !21
  %26 = load ptr, ptr %3, align 8, !tbaa !40
  %27 = getelementptr inbounds nuw %struct.Rtm_Obj_t_, ptr %26, i32 0, i32 1
  %28 = load i32, ptr %27, align 8
  %29 = lshr i32 %28, 7
  %30 = and i32 %29, 255
  %31 = zext i32 %30 to i64
  %32 = trunc i64 %31 to i32
  %33 = icmp slt i32 %25, %32
  br i1 %33, label %34, label %38

34:                                               ; preds = %24
  %35 = load ptr, ptr %3, align 8, !tbaa !40
  %36 = load i32, ptr %7, align 4, !tbaa !21
  %37 = call ptr @Rtm_ObjEdge(ptr noundef %35, i32 noundef %36)
  store ptr %37, ptr %4, align 8, !tbaa !8
  br label %38

38:                                               ; preds = %34, %24
  %39 = phi i1 [ false, %24 ], [ true, %34 ]
  br i1 %39, label %40, label %51

40:                                               ; preds = %38
  %41 = load i32, ptr %5, align 4, !tbaa !21
  %42 = load ptr, ptr %4, align 8, !tbaa !8
  %43 = load i32, ptr %42, align 8
  %44 = and i32 %43, 4095
  %45 = zext i32 %44 to i64
  %46 = trunc i64 %45 to i32
  %47 = call i32 @Abc_MaxInt(i32 noundef %41, i32 noundef %46)
  store i32 %47, ptr %5, align 4, !tbaa !21
  br label %48

48:                                               ; preds = %40
  %49 = load i32, ptr %7, align 4, !tbaa !21
  %50 = add nsw i32 %49, 1
  store i32 %50, ptr %7, align 4, !tbaa !21
  br label %24, !llvm.loop !42

51:                                               ; preds = %38
  br label %52

52:                                               ; preds = %51
  %53 = load i32, ptr %6, align 4, !tbaa !21
  %54 = add nsw i32 %53, 1
  store i32 %54, ptr %6, align 4, !tbaa !21
  br label %8, !llvm.loop !44

55:                                               ; preds = %21
  %56 = load i32, ptr %5, align 4, !tbaa !21
  call void @llvm.lifetime.end.p0(i64 4, ptr %7) #11
  call void @llvm.lifetime.end.p0(i64 4, ptr %6) #11
  call void @llvm.lifetime.end.p0(i64 4, ptr %5) #11
  call void @llvm.lifetime.end.p0(i64 8, ptr %4) #11
  call void @llvm.lifetime.end.p0(i64 8, ptr %3) #11
  ret i32 %56
}