; Function Attrs: nofree norecurse nosync nounwind memory(read, inaccessiblemem: none) uwtable
define range(i32 0, 4096) i32 @Rtm_ManLatchMax(ptr noundef readonly captures(none) %0) local_unnamed_addr #8 {
  %2 = load ptr, ptr %0, align 8, !tbaa !26
  %3 = getelementptr i8, ptr %2, i64 4
  %.val = load i32, ptr %3, align 4, !tbaa !22
  %4 = icmp sgt i32 %.val, 0
  br i1 %4, label %.lr.ph21, label %.critedge

.lr.ph21:                                         ; preds = %1
  %5 = getelementptr i8, ptr %2, i64 8
  %.val16 = load ptr, ptr %5, align 8, !tbaa !25
  %wide.trip.count27 = zext nneg i32 %.val to i64
  br label %6

6:                                                ; preds = %.lr.ph21, %.critedge2
  %indvars.iv24 = phi i64 [ 0, %.lr.ph21 ], [ %indvars.iv.next25, %.critedge2 ]
  %.01519 = phi i32 [ 0, %.lr.ph21 ], [ %.1.lcssa, %.critedge2 ]
  %7 = getelementptr inbounds nuw ptr, ptr %.val16, i64 %indvars.iv24
  %8 = load ptr, ptr %7, align 8, !tbaa !34
  %9 = getelementptr inbounds nuw i8, ptr %8, i64 8
  %10 = load i32, ptr %9, align 8
  %11 = lshr i32 %10, 7
  %12 = and i32 %11, 255
  %.not = icmp eq i32 %12, 0
  br i1 %.not, label %.critedge2, label %.lr.ph

.lr.ph:                                           ; preds = %6
  %invariant.gep = getelementptr inbounds nuw i8, ptr %8, i64 32
  %wide.trip.count = zext nneg i32 %12 to i64
  br label %13

13:                                               ; preds = %.lr.ph, %13
  %indvars.iv = phi i64 [ 0, %.lr.ph ], [ %indvars.iv.next, %13 ]
  %.117 = phi i32 [ %.01519, %.lr.ph ], [ %16, %13 ]
  %gep.idx = shl nuw nsw i64 %indvars.iv, 4
  %gep = getelementptr inbounds nuw i8, ptr %invariant.gep, i64 %gep.idx
  %14 = load i32, ptr %gep, align 8
  %15 = and i32 %14, 4095
  %16 = tail call range(i32 -2147483647, -2147483648) i32 @llvm.smax.i32(i32 %.117, i32 range(i32 -2147483647, -2147483648) %15)
  %indvars.iv.next = add nuw nsw i64 %indvars.iv, 1
  %exitcond.not = icmp eq i64 %indvars.iv.next, %wide.trip.count
  br i1 %exitcond.not, label %.critedge2, label %13, !llvm.loop !35

.critedge2:                                       ; preds = %13, %6
  %.1.lcssa = phi i32 [ %.01519, %6 ], [ %16, %13 ]
  %indvars.iv.next25 = add nuw nsw i64 %indvars.iv24, 1
  %exitcond28.not = icmp eq i64 %indvars.iv.next25, %wide.trip.count27
  br i1 %exitcond28.not, label %.critedge, label %6, !llvm.loop !37

.critedge:                                        ; preds = %.critedge2, %1
  %.015.lcssa = phi i32 [ 0, %1 ], [ %.1.lcssa, %.critedge2 ]
  ret i32 %.015.lcssa
}